; Function Attrs: mustprogress nounwind uwtable
define dso_local noalias ptr @LLVMIntrinsicCopyOverloadedName(i32 noundef %0, ptr noundef %1, i64 noundef %2, ptr noundef writeonly captures(none) initializes((0, 8)) %3) local_unnamed_addr #0 {
  %5 = alloca %"class.std::__cxx11::basic_string", align 8
  call void @_ZN4llvm9Intrinsic21getNameNoUnnamedTypesB5cxx11EjNS_8ArrayRefIPNS_4TypeEEE(ptr dead_on_unwind nonnull writable sret(%"class.std::__cxx11::basic_string") align 8 %5, i32 noundef %0, ptr %1, i64 %2) #35
  %6 = call noundef i64 @_ZNKSt7__cxx1112basic_stringIcSt11char_traitsIcESaIcEE6lengthEv(ptr noundef nonnull align 8 dereferenceable(32) %5) #35
  store i64 %6, ptr %3, align 8
  %7 = call noundef ptr @_ZNKSt7__cxx1112basic_stringIcSt11char_traitsIcESaIcEE5c_strEv(ptr noundef nonnull align 8 dereferenceable(32) %5) #35
  %8 = call noalias ptr @strdup(ptr noundef %7) #35
  call void @_ZNSt7__cxx1112basic_stringIcSt11char_traitsIcESaIcEED1Ev(ptr noundef nonnull align 8 dereferenceable(32) %5) #35
  ret ptr %8
}